; Function Attrs: noinline nounwind sspstrong uwtable
define dso_local noundef ptr @tcg_gen_op2(i32 noundef %0, i32 noundef %1, i64 noundef %2, i64 noundef %3) local_unnamed_addr #0 {
  %5 = tail call ptr @tcg_emit_op(i32 noundef %0, i32 noundef 2) #6
  %6 = load i32, ptr %5, align 8
  %7 = shl i32 %1, 16
  %8 = and i32 %7, 16711680
  %9 = and i32 %6, -16711681
  %10 = or disjoint i32 %9, %8
  store i32 %10, ptr %5, align 8
  %11 = getelementptr inbounds nuw i8, ptr %5, i64 32
  store i64 %2, ptr %11, align 8
  %12 = getelementptr inbounds nuw i8, ptr %5, i64 40
  store i64 %3, ptr %12, align 8
  ret ptr %5
}